MPASM 5.82  /HOME/GUGO/MPLABXPROJECTS/PIC-LE   1-28-2019  12:55:53         PAGE  1


LOC  OBJECT CODE     LINE SOURCE TEXT
  VALUE

                      00001 ; TODO INSERT CONFIG CODE HERE USING CONFIG BITS GENERATOR
                      00002 #include <p16f690.inc>
                      00001         LIST
                      00002 
                      00003 ;==========================================================================
                      00004 ; Build date : Sep 19 2018
                      00005 ;  MPASM PIC16F690 processor include
                      00006 ; 
                      00007 ;  (c) Copyright 1999-2018 Microchip Technology, All rights reserved
                      00008 ;==========================================================================
                      00009 
                      00757         LIST
2007   38D2           00003     __config (_HS_OSC & _WDT_OFF & _PWRTE_OFF & _MCLRE_OFF & _CP_OFF & _CPD_OFF & _BOR_OFF & _IESO_OFF &
                             _FCMEN_ON)
                      00004     
                      00005 RES_VECT  CODE    0x0000            ; processor reset vector
0000   018B           00006     CLRF    INTCON                  ; disable interrupts
0001   2???           00007     GOTO    START                   ; go to beginning of program
                      00008 
                      00009 Int_Handler CODE    0x0004
0004   0009           00010     RETFIE
                      00011 
  00000001            00012 PATTERN equ B'00000001'
  00000020            00013 SIZE_COL    equ .32
  00000008            00014 SIZE_B      equ .8
  0000000F            00015 MAX_COLORS  equ 0x0F                ;0-15 = 16 colors MASQUING LOGIC
  00000020            00016 ARRAY_START     equ 0x20
                      00017 ;SECTION JUST USED WHEN PRINTING
                      00018 ;MAY BE REUSED ONLY FOR TEMPORAL USE
  00000060            00019 COLUMN_INDEX    equ 0x60
  00000061            00020 CURRENT_COLUMN  equ 0x61
  00000062            00021 CURRENT_COLUMN_INDEX    equ 0x62
  00000063            00022 TABLE_TEMPORAL  equ 0x63
  00000064            00023 CURRENT_COLOR   equ 0x64
  00000065            00024 INDEXED_COLOR   equ 0x65
  00000066            00025 TEMP_COLOR      equ 0x66
  00000067            00026 DISPLAY_COLOR   equ 0x67
  00000068            00027 CURRENT_DISPLAY_INDEX   equ 0x68
                      00028 
                      00029 ;REUSE FOR REVERSE
  00000060            00030 REVERSE_TEMP    equ 0x60
  00000061            00031 REVERSE_RET     equ 0x61
  00000062            00032 REVERSE_COUNT   equ 0x62
                      00033 
  00000003            00034 MAX_ROTATIONS  equ      0x03                ;0-3 = 4 MAQUING ROTATIONS
                      00035 ;REUSE FOR GET_PIECES
  00000060            00036 PIECE_TEMP      equ 0x60
  00000061            00037 SIZE_TEMP       equ 0x61
  00000062            00038 PIECE_START     equ 0x62
  00000063            00039 PIECE_TABLE     equ 0x63
                      00040 
                      00041         
                      00042 ;COMMONS BECAUSE BETWEEN 0x70-0x7F
MPASM 5.82  /HOME/GUGO/MPLABXPROJECTS/PIC-LE   1-28-2019  12:55:53         PAGE  2


LOC  OBJECT CODE     LINE SOURCE TEXT
  VALUE

  0000007F            00043 LAST_STATE  equ 0x7F
  0000007E            00044 LAST_POS    equ 0x7E
  0000007D            00045 PIECE_SIZE  equ 0x7D
  0000007C            00046 PIECE_3     equ 0x7C
  0000007B            00047 PIECE_2     equ 0x7B
  0000007A            00048 PIECE_1     equ 0x7A
  00000079            00049 PIECE_0     equ 0x79
  00000078            00050 PIECE_TYPE  equ 0x78
  00000077            00051 hiB         equ 0x77
  00000076            00052 lowB        equ 0x76
                      00053   
                      00054   
                      00055 ;MAP OF DISPLAY MEMORY, MUST NOT REUSE
                      00056     cblock 0x20 ; 0x20 - 0x5F = 64 BYTES 
  00000020            00057         B0,C0,B1,C1,B2,C2,B3,C3,B4,C4,B5,C5,B6,C6,B7,C7
  00000030            00058         B8,C8,B9,C9,B10,C10,B11,C11,B12,C12,B13,C13,B14,C14,B15,C15
  00000040            00059         B16,C16,B17,C17,B18,C18,B19,C19,B20,C20,B21,C21,B22,C22,B23,C23
  00000050            00060         B24,C24,B25,C25,B26,C26,B27,C27,B28,C28,B29,C29,B30,C30,B31,C31
                      00061     endc
                      00062 
                      00063 ;Paleta clonada de https://jonasjacek.github.io/colors/
0005   3400 3420 3400 00064 COLORS_GREEN dt 0x00,0x20,0x00,0x00,0x20,0x20,0x00,0x20,0x10,0x00,0x00,0x10,0x10,0x00,0x20,0x00
       3400 3420 3420 
       3400 3420 3410 
       3400 3400 3410 
       3410 3400 3420 
       3400 
0015   3400 3400 3420 00065 COLORS_RED dt   0x00,0x00,0x20,0x00,0x20,0x00,0x20,0x20,0x00,0x10,0x00,0x10,0x00,0x10,0x10,0x10
       3400 3420 3400 
       3420 3420 3400 
       3410 3400 3410 
       3400 3410 3410 
       3410 
0025   3400 3400 3400 00066 COLORS_BLUE dt  0x00,0x00,0x00,0x20,0x00,0x20,0x20,0x20,0x00,0x00,0x10,0x00,0x10,0x10,0x00,0x20
       3420 3400 3420 
       3420 3420 3400 
       3400 3410 3400 
       3410 3410 3400 
       3420 
  00000000            00067 COLOR_BLACK equ 0x00 ; POSITION OF BLACK
                      00068  
                      00069 ;LISTA DE BLOQUES
                      00070  
                      00071 ;ORDER: LINE,SQUARE,L,IL,T,Z,IZ
0035   3401 3404 3401 00072 BLOCK_SIZES     dt  0x01,0x04,0x01,0x04,    0x02, 0x02, 0x02, 0x02,     0x03,0x02,0x03,0x02,    0x03,0x0
                            2,0x03,0x02,    0x02,0x03,0x02,0x03,    0x02,0x03, 0x02,0x03,   0x02,0x03, 0x02,0x03
       3404 3402 3402 
       3402 3402 3403 
       3402 3403 3402 
       3403 3402 3403 
       3402 3402 3403 
       3402 3403 3402 
       3403 3402 3403 
MPASM 5.82  /HOME/GUGO/MPLABXPROJECTS/PIC-LE   1-28-2019  12:55:53         PAGE  3


LOC  OBJECT CODE     LINE SOURCE TEXT
  VALUE

       3402 3403 3402 
       3403 
0051   3400 3401 3405 00073 BLOCK_STARTS    dt  0x00,0x01,0x05,0x06,    0x0a, 0x0c, 0x0e, 0x10,     0x12,0x15,0x17,0x1a,    0x1c,0x1
                            f,0x21,0x24,    0x26,0x28,0x2b,0x2d,    0x30,0x32, 0x35,0x37,   0x3a,0x3c, 0x3f,0x41
       3406 340A 340C 
       340E 3410 3412 
       3415 3417 341A 
       341C 341F 3421 
       3424 3426 3428 
       342B 342D 3430 
       3432 3435 3437 
       343A 343C 343F 
       3441 
006D   340F 3401 3401 00074 BLOCK_ROTATIONS dt  0x0F, 0x01,0x01,0x01,0x01, 0x0F, 0x01,0x01,0x01,0x01,  0x03,0x03, 0x03,0x03, 0x03,0x
                            03, 0x03,0x03,   0x01,0x01,0x03, 0x04,0x07, 0x03,0x02,0x02, 0x07,0x01,  0x02,0x02,0x03, 0x07,0x0
       3401 3401 340F 
       3401 3401 3401 
       3401 3403 3403 
       3403 3403 3403 
       3403 3403 3403 
       3401 3401 3403 
       3404 3407 3403 
       3402 3402 3407 
       3401 3402 3402 
       3403 3407 3400 
                      00075 
008E                  00076 GET_SIZE
008E   00E3           00077     MOVWF   PIECE_TABLE         ;PUT INDEX OUT OF WAY
008F   30??           00078     MOVLW   HIGH BLOCK_SIZES    ;GET HIGH PART OF TABLE
0090   008A           00079     MOVWF   PCLATH              ;SET PAG
0091   0863           00080     MOVF    PIECE_TABLE,W       ;RECOVER INDEX
0092   3E??           00081     ADDLW   BLOCK_SIZES         ;ADD LOW
0093   1803           00082     BTFSC   STATUS,C            ;CHECK IF ROLLOVER, 1 MAX, table size 256 (0-255)
0094   0A8A           00083     INCF    PCLATH,F
0095   0082           00084     MOVWF   PCL
                      00085 
0096                  00086 GET_PIECE_START
0096   00E3           00087     MOVWF   PIECE_TABLE         ;PUT INDEX OUT OF WAY
0097   30??           00088     MOVLW   HIGH BLOCK_STARTS   ;GET HIGH PART OF TABLE
0098   008A           00089     MOVWF   PCLATH              ;SET PAG
0099   0863           00090     MOVF    PIECE_TABLE,W       ;RECOVER INDEX
009A   3E??           00091     ADDLW   BLOCK_STARTS        ;ADD LOW
009B   1803           00092     BTFSC   STATUS,C            ;CHECK IF ROLLOVER, 1 MAX, table size 256 (0-255)
009C   0A8A           00093     INCF    PCLATH,F
009D   0082           00094     MOVWF   PCL
                      00095     
009E                  00096 GET_PIECE_ROTATION
009E   30??           00097     MOVLW   HIGH BLOCK_ROTATIONS    ;GET HIGH PART OF TABLE
009F   008A           00098     MOVWF   PCLATH                  ;SET PAG
00A0   0862           00099     MOVF    PIECE_START,W           ;RECOVER INDEX
00A1   3E??           00100     ADDLW   BLOCK_ROTATIONS         ;ADD LOW
00A2   1803           00101     BTFSC   STATUS,C                ;CHECK IF ROLLOVER, 1 MAX, table size 256 (0-255)
00A3   0A8A           00102     INCF    PCLATH,F
MPASM 5.82  /HOME/GUGO/MPLABXPROJECTS/PIC-LE   1-28-2019  12:55:53         PAGE  4


LOC  OBJECT CODE     LINE SOURCE TEXT
  VALUE

00A4   0082           00103     MOVWF   PCL
                      00104 
00A5                  00105 GET_PIECE
00A5   391F           00106     ANDLW   0x1F                ;MAX 32
00A6   00E0           00107     MOVWF   PIECE_TEMP          ;ACTUAL PIECE I WANT, ROTATION INCLUDED
00A7   3C1C           00108     SUBLW   .28
00A8   1803           00109     BTFSC   STATUS,C
00A9   0860           00110     MOVF    PIECE_TEMP,W
                      00111     
00AA   2???           00112     CALL    GET_SIZE            ;SIZE OF PIECE
00AB   00FD           00113     MOVWF   PIECE_SIZE
00AC   00E1           00114     MOVWF   SIZE_TEMP
                      00115     
00AD   0860           00116     MOVF    PIECE_TEMP,W
00AE   2???           00117     CALL    GET_PIECE_START     ;WHERE IT STARTS
00AF   00E2           00118     MOVWF   PIECE_START         
                      00119     
00B0   3079           00120     MOVLW   PIECE_0
00B1   0084           00121     MOVWF   FSR
                      00122     
Warning[207]: Found label after column 1. (GET_PIECE_LOOP)
00B2                  00123     GET_PIECE_LOOP
00B2   2???           00124         CALL    GET_PIECE_ROTATION
00B3   0080           00125         MOVWF   INDF
00B4   0A84           00126         INCF    FSR,F
00B5   0AE2           00127         INCF    PIECE_START,F
Message[305]: Using default destination of 1 (file).
00B6   0BE1           00128         DECFSZ  SIZE_TEMP
00B7   2???           00129         GOTO    GET_PIECE_LOOP
                      00130         
00B8   3400           00131     RETLW   0x00
                      00132 
00B9   0877           00133 RANDOM       MOVF   hiB,W                 ; First, ensure that hiB and lowB aren't
00BA   0476           00134              IORWF  lowB,W               ; all zeros. If they are, NOT hiB to FFh.
00BB   1903           00135              BTFSC  STATUS,Z             ; Otherwise, leave hiB and lowB as is.
Message[305]: Using default destination of 1 (file).
00BC   09F7           00136              COMF   hiB                   
00BD   3080           00137              MOVLW  0x80                 ; We want to XOR hiB.7, hiB.6, hiB.4
00BE   1B77           00138              BTFSC  hiB,d'6'             ; and lowB.3 together in W. Rather than
Message[305]: Using default destination of 1 (file).
00BF   06F7           00139              XORWF  hiB                  ; try to line up these bits, we just
00C0   1A77           00140              BTFSC  hiB,d'4'             ; check to see whether a bit is a 1. If it
Message[305]: Using default destination of 1 (file).
00C1   06F7           00141              XORWF  hiB                  ; is, XOR 80h into hiB. If it isn't,
00C2   19F6           00142              BTFSC  lowB,d'3'            ; do nothing. When we're done, the
Message[305]: Using default destination of 1 (file).
00C3   06F7           00143              XORWF  hiB                  ; XOR of the 4 bits will be in hiB.7.
00C4   0D77           00144              RLF    hiB,W                  ; Move hiB.7 into carry. 
Message[305]: Using default destination of 1 (file).
00C5   0DF6           00145              RLF    lowB                   ; Rotate c into lowB.0, lowB.7 into c. 
Message[305]: Using default destination of 1 (file).
00C6   0DF7           00146              RLF    hiB                    ; Rotate c into hiB.0. 
00C7   0876           00147              MOVF   lowB,W
MPASM 5.82  /HOME/GUGO/MPLABXPROJECTS/PIC-LE   1-28-2019  12:55:53         PAGE  5


LOC  OBJECT CODE     LINE SOURCE TEXT
  VALUE

00C8   0008           00148              RETURN
                      00149              
00C9                  00150 REVERSE_BYTE
00C9   00E0           00151     MOVWF   REVERSE_TEMP
00CA   3008           00152     MOVLW   0x08
00CB   00E2           00153     MOVWF   REVERSE_COUNT
Warning[207]: Found label after column 1. (REVERSE_LOOP)
00CC                  00154     REVERSE_LOOP
00CC   0CE0           00155         RRF         REVERSE_TEMP,F
00CD   0DE1           00156         RLF         REVERSE_RET,F
00CE   0BE2           00157         DECFSZ  REVERSE_COUNT,F
00CF   2???           00158         GOTO REVERSE_LOOP
00D0   0861           00159     MOVF    REVERSE_RET,W
00D1   0008           00160     RETURN
                      00161     
                      00162     
00D2                  00163 GET_GREEN
00D2   00E3           00164     MOVWF   TABLE_TEMPORAL      ;PUT INDEX OUT OF WAY
00D3   30??           00165     MOVLW   HIGH COLORS_GREEN   ;GET HIGH PART OF TABLE
00D4   008A           00166     MOVWF   PCLATH              ;SET PAG
00D5   0863           00167     MOVF    TABLE_TEMPORAL,W    ;RECOVER INDEX
00D6   390F           00168     ANDLW   MAX_COLORS          ;GET MAX 16
00D7   3E??           00169     ADDLW   COLORS_GREEN        ;ADD LOW
00D8   1803           00170     BTFSC   STATUS,C            ;CHECK IF ROLLOVER, 1 MAX, table size 256 (0-255)
00D9   0A8A           00171     INCF    PCLATH,F
00DA   0082           00172     MOVWF   PCL
00DB                  00173 GET_RED
00DB   00E3           00174     MOVWF   TABLE_TEMPORAL      ;PUT INDEX OUT OF WAY
00DC   30??           00175     MOVLW   HIGH COLORS_RED     ;GET HIGH PART OF TABLE
00DD   008A           00176     MOVWF   PCLATH              ;SET PAGE
00DE   0863           00177     MOVF    TABLE_TEMPORAL,W    ;RECOVER INDEX
00DF   390F           00178     ANDLW   MAX_COLORS          ;GET MAX 16
00E0   3E??           00179     ADDLW   COLORS_RED          ;ADD LOW
00E1   1803           00180     BTFSC   STATUS,C            ;CHECK IF ROLLOVER, 1 MAX, table size 256 (0-255)
00E2   0A8A           00181     INCF    PCLATH,F
00E3   0082           00182     MOVWF   PCL
00E4                  00183 GET_BLUE
00E4   00E3           00184     MOVWF   TABLE_TEMPORAL      ;PUT INDEX OUT OF WAY
00E5   30??           00185     MOVLW   HIGH COLORS_BLUE    ;GET HIGH PART OF TABLE
00E6   008A           00186     MOVWF   PCLATH              ;SET PAGE
00E7   0863           00187     MOVF    TABLE_TEMPORAL,W    ;RECOVER INDEX
00E8   390F           00188     ANDLW   MAX_COLORS          ;GET MAX 16
00E9   3E??           00189     ADDLW   COLORS_BLUE         ;ADD LOW
00EA   1803           00190     BTFSC   STATUS,C            ;CHECK IF ROLLOVER, 1 MAX, table size 256 (0-255)
00EB   0A8A           00191     INCF    PCLATH,F
00EC   0082           00192     MOVWF   PCL
                      00193     
                      00194     
00ED                  00195 PRINT_SCREEN                        ; Only works on bank 0 or 2
00ED   1787           00196     BSF PORTC,RC7                   ; SET OUTPUT HIGH, START RESET
00EE   3050           00197     MOVLW   .80
00EF   00E1           00198     MOVWF   CURRENT_COLUMN
Warning[207]: Found label after column 1. (SEND_RESET_HIGH)
MPASM 5.82  /HOME/GUGO/MPLABXPROJECTS/PIC-LE   1-28-2019  12:55:53         PAGE  6


LOC  OBJECT CODE     LINE SOURCE TEXT
  VALUE

00F0                  00199     SEND_RESET_HIGH                         ; Reset >50 microseconds
00F0   0BE1           00200         DECFSZ  CURRENT_COLUMN,F            ; Tnstruction 0.4 * 3 (AMOUNT INST) 10MHz
00F1   2???           00201         GOTO SEND_RESET_HIGH                ;  = 1.2 microseconds
                      00202         
00F2   1387           00203     BCF PORTC,RC7                   ; SET OUTPUT LOW, START RESET
00F3   3050           00204     MOVLW   .80
00F4   00E1           00205     MOVWF   CURRENT_COLUMN
Warning[207]: Found label after column 1. (SEND_RESET)
00F5                  00206     SEND_RESET                      ; Reset >50 microseconds
00F5   0BE1           00207         DECFSZ  CURRENT_COLUMN,F            ; Tnstruction 0.4 * 3 (AMOUNT INST) 10MHz
00F6   2???           00208         GOTO SEND_RESET             ;  = 1.2 microseconds
                      00209         
                      00210         
                      00211     ;BSF        PORTC,RC6
00F7   0000           00212                 NOP
00F8   0000           00213                 NOP
00F9   0000           00214                 NOP
00FA   0000           00215                 NOP
00FB   0000           00216                 NOP
00FC   0000           00217                 NOP
00FD   0000           00218                 NOP
00FE   0000           00219                 NOP
00FF   0000           00220                 NOP
0100   0000           00221                 NOP
0101   0000           00222                 NOP
0102   0000           00223                 NOP        
                      00224     ;BCF        PORTC,RC6
                      00225         
                      00226         
0103   3020           00227     MOVLW   ARRAY_START             ; START INDIRECT ACCES TO FIRST WORD
0104   0084           00228     MOVWF   FSR                     
                      00229     
0105   3020           00230     MOVLW   SIZE_COL
0106   00E0           00231     MOVWF   COLUMN_INDEX
Warning[207]: Found label after column 1. (COLUMN_LOOP)
0107                  00232     COLUMN_LOOP
0107   3008           00233         MOVLW   SIZE_B
0108   00E2           00234         MOVWF   CURRENT_COLUMN_INDEX
                      00235         
0109   0800           00236         MOVF    INDF,W
010A   00E1           00237         MOVWF   CURRENT_COLUMN      ;LED PATTERN
010B   0A84           00238         INCF    FSR,F
                      00239         
010C   0800           00240         MOVF    INDF,W
010D   00E4           00241         MOVWF   CURRENT_COLOR       ;LED COLOR
010E   0A84           00242         INCF    FSR,F
                      00243         
Warning[207]: Found label after column 1. (COLUMN_BIT)
010F                  00244         COLUMN_BIT
010F   0864           00245         MOVF    CURRENT_COLOR,W
0110   1FE1           00246         BTFSS   CURRENT_COLUMN,7        ; IF CURRENT POSITIOS IS ON
0111   3000           00247         MOVLW   COLOR_BLACK
0112   00E6           00248         MOVWF   TEMP_COLOR
MPASM 5.82  /HOME/GUGO/MPLABXPROJECTS/PIC-LE   1-28-2019  12:55:53         PAGE  7


LOC  OBJECT CODE     LINE SOURCE TEXT
  VALUE

                      00249             
0113   0000           00250             NOP
0114   0000           00251             NOP
0115   0000           00252             NOP
0116   0000           00253             NOP
0117   0000           00254             NOP
0118   0000           00255             NOP
0119   0000           00256             NOP
011A   0000           00257             NOP
011B   0000           00258             NOP
011C   0000           00259             NOP
011D   0000           00260             NOP
011E   0000           00261             NOP
011F   0000           00262             NOP
0120   0000           00263             NOP
                      00264             ;GREEN
0121   2???           00265             CALL    GET_GREEN
0122   00E7           00266             MOVWF   DISPLAY_COLOR
0123   3008           00267             MOVLW   SIZE_B
0124   00E8           00268             MOVWF   CURRENT_DISPLAY_INDEX
Warning[207]: Found label after column 1. (GREEN_LOOP)
0125                  00269             GREEN_LOOP
0125   1FE7           00270                 BTFSS   DISPLAY_COLOR,7 ; IF 0 HIGHEST BIT
0126   2???           00271                 GOTO    LOOP_GREEN_SHORT        ; GO TO SHORT
0127   1787           00272                 BSF         PORTC,RC7           ; LONG, 1
0128   0000           00273                 NOP
0129   0000           00274                 NOP
012A   0000           00275                 NOP
012B   1387           00276                 BCF         PORTC,RC7
012C   2???           00277                 GOTO    LOOP_GREEN_END
Warning[207]: Found label after column 1. (LOOP_GREEN_SHORT)
012D                  00278                 LOOP_GREEN_SHORT
012D   1787           00279                 BSF         PORTC,RC7           ; SHORT, 0
012E   1387           00280                 BCF         PORTC,RC7
Warning[207]: Found label after column 1. (LOOP_GREEN_END)
012F                  00281                 LOOP_GREEN_END
012F   0DE7           00282                 RLF     DISPLAY_COLOR,F
0130   0BE8           00283                 DECFSZ  CURRENT_DISPLAY_INDEX,F
0131   2???           00284                 GOTO GREEN_LOOP
                      00285             
0132   0000           00286             NOP
0133   0000           00287             NOP
0134   0000           00288             NOP
0135   0000           00289             NOP
0136   0000           00290             NOP
0137   0000           00291             NOP
0138   0000           00292             NOP
0139   0000           00293             NOP
013A   0000           00294             NOP
013B   0000           00295             NOP
013C   0000           00296             NOP
013D   0000           00297             NOP
013E   0000           00298             NOP
MPASM 5.82  /HOME/GUGO/MPLABXPROJECTS/PIC-LE   1-28-2019  12:55:53         PAGE  8


LOC  OBJECT CODE     LINE SOURCE TEXT
  VALUE

013F   0000           00299             NOP
0140   0000           00300             NOP
0141   0000           00301             NOP
                      00302                 
                      00303             ;RED
0142   0866           00304             MOVF    TEMP_COLOR,W
0143   2???           00305             CALL    GET_RED
0144   00E7           00306             MOVWF   DISPLAY_COLOR
0145   3008           00307             MOVLW   SIZE_B
0146   00E8           00308             MOVWF   CURRENT_DISPLAY_INDEX
Warning[207]: Found label after column 1. (RED_LOOP)
0147                  00309             RED_LOOP
0147   1FE7           00310                 BTFSS   DISPLAY_COLOR,7 ; IF 0 HIGHEST BIT
0148   2???           00311                 GOTO    LOOP_RED_SHORT  ; GO TO SHORT
0149   1787           00312                 BSF         PORTC,RC7           ; LONG, 1
014A   0000           00313                 NOP
014B   0000           00314                 NOP
014C   0000           00315                 NOP
014D   1387           00316                 BCF         PORTC,RC7
014E   2???           00317                 GOTO    LOOP_RED_END
Warning[207]: Found label after column 1. (LOOP_RED_SHORT)
014F                  00318                 LOOP_RED_SHORT
014F   1787           00319                 BSF         PORTC,RC7           ; SHORT, 0
0150   1387           00320                 BCF         PORTC,RC7
Warning[207]: Found label after column 1. (LOOP_RED_END)
0151                  00321                 LOOP_RED_END
0151   0DE7           00322                 RLF     DISPLAY_COLOR,F
0152   0BE8           00323                 DECFSZ  CURRENT_DISPLAY_INDEX,F
0153   2???           00324                 GOTO RED_LOOP
                      00325             
0154   0000           00326             NOP
0155   0000           00327             NOP
0156   0000           00328             NOP
0157   0000           00329             NOP
0158   0000           00330             NOP
0159   0000           00331             NOP
015A   0000           00332             NOP
015B   0000           00333             NOP
015C   0000           00334             NOP
015D   0000           00335             NOP
015E   0000           00336             NOP
015F   0000           00337             NOP
0160   0000           00338             NOP
0161   0000           00339             NOP
0162   0000           00340             NOP
                      00341                 
                      00342             ;BLUE
0163   0866           00343             MOVF    TEMP_COLOR,W
0164   2???           00344             CALL    GET_BLUE
0165   00E7           00345             MOVWF   DISPLAY_COLOR
0166   3008           00346             MOVLW   SIZE_B
0167   00E8           00347             MOVWF   CURRENT_DISPLAY_INDEX
Warning[207]: Found label after column 1. (BLUE_LOOP)
MPASM 5.82  /HOME/GUGO/MPLABXPROJECTS/PIC-LE   1-28-2019  12:55:53         PAGE  9


LOC  OBJECT CODE     LINE SOURCE TEXT
  VALUE

0168                  00348             BLUE_LOOP
0168   1FE7           00349                 BTFSS   DISPLAY_COLOR,7 ; IF 0 HIGHEST BIT
0169   2???           00350                 GOTO    LOOP_BLUE_SHORT ; GO TO SHORT
016A   1787           00351                 BSF         PORTC,RC7           ; LONG, 1
016B   0000           00352                 NOP
016C   0000           00353                 NOP
016D   0000           00354                 NOP
016E   1387           00355                 BCF         PORTC,RC7
016F   2???           00356                 GOTO    LOOP_BLUE_END
Warning[207]: Found label after column 1. (LOOP_BLUE_SHORT)
0170                  00357                 LOOP_BLUE_SHORT
0170   1787           00358                 BSF         PORTC,RC7           ; SHORT, 0
0171   1387           00359                 BCF         PORTC,RC7
Warning[207]: Found label after column 1. (LOOP_BLUE_END)
0172                  00360                 LOOP_BLUE_END
0172   0DE7           00361                 RLF     DISPLAY_COLOR,F
0173   0BE8           00362                 DECFSZ  CURRENT_DISPLAY_INDEX,F
0174   2???           00363                 GOTO BLUE_LOOP
                      00364                 
                      00365             ;BSF        PORTC,RC6          
                      00366             ;BCF        PORTC,RC6
0175   0DE1           00367             RLF CURRENT_COLUMN,F
0176   0BE2           00368             DECFSZ  CURRENT_COLUMN_INDEX,F
0177   2???           00369             GOTO COLUMN_BIT
                      00370 
0178   0BE0           00371         DECFSZ  COLUMN_INDEX,F
0179   2???           00372         GOTO    COLUMN_LOOP
                      00373 
                      00374     ;BCF        PORTC,RC6
017A   1787           00375     BSF PORTC,RC7       
017B   0008           00376     RETURN
                      00377 
                      00378     
                      00379 MAIN_PROG CODE                      ; let linker place main program
                      00380 
0000                  00381 START
0000   1283 1703      00382     BANKSEL ANSEL
Message[302]: Register in operand not in bank 0.  Ensure that bank bits are correct.
0002   019E           00383     CLRF    ANSEL
Message[302]: Register in operand not in bank 0.  Ensure that bank bits are correct.
0003   019F           00384     CLRF    ANSELH
0004   1683 1303      00385     BANKSEL TRISC                   ; GOTO BANK
Message[302]: Register in operand not in bank 0.  Ensure that bank bits are correct.
0006   1307           00386     BCF TRISC,RC6       
Message[302]: Register in operand not in bank 0.  Ensure that bank bits are correct.
0007   1387           00387     BCF TRISC,RC7                   ; SET PINRC7 AS OUTPUT
0008   30F0           00388     MOVLW   0xF0
Message[302]: Register in operand not in bank 0.  Ensure that bank bits are correct.
0009   0086           00389     MOVWF   TRISB
                      00390     
000A   1683 1303      00391     BANKSEL OSCCON
Message[302]: Register in operand not in bank 0.  Ensure that bank bits are correct.
000C   018F           00392     clrf        OSCCON                  ; Internal clock to 31KHz & ext clock source
MPASM 5.82  /HOME/GUGO/MPLABXPROJECTS/PIC-LE   1-28-2019  12:55:53         PAGE 10


LOC  OBJECT CODE     LINE SOURCE TEXT
  VALUE

                      00393     
000D   1683 1303      00394     BANKSEL OSCCON                  ; OSCILATOR CONFIG
Message[302]: Register in operand not in bank 0.  Ensure that bank bits are correct.
000F   170F           00395     BSF OSCCON,IRCF2
Message[302]: Register in operand not in bank 0.  Ensure that bank bits are correct.
0010   168F           00396     BSF OSCCON,IRCF1
Message[302]: Register in operand not in bank 0.  Ensure that bank bits are correct.
0011   120F           00397     BCF OSCCON,IRCF0                ; SET OSCILATOR TO 4MHZ
                      00398     
Warning[207]: Found label after column 1. (STABILIZATION)
0012                  00399     STABILIZATION
Message[302]: Register in operand not in bank 0.  Ensure that bank bits are correct.
0012   1D0F           00400         BTFSS   OSCCON,HTS          ; JUST WAIT UNTIL FLAG OF STABILIZATION
0013   2???           00401         GOTO STABILIZATION
                      00402 
                      00403         
0014   1283 1303      00404     BANKSEL PORTC
                      00405     
0016   1787           00406     BSF PORTC,RC7                   ; SET OUTPUT HIGH
0017   01FE           00407     CLRF    LAST_POS
                      00408     
0018   3020           00409     MOVLW   SIZE_COL                ; LOAD COUNTER TO ACUM
0019   00E1           00410     MOVWF   CURRENT_COLUMN          ; ACUM TO RAM
                      00411     
001A   1383           00412     BCF     STATUS,IRP              ; INDIRECT BANK 0,1
001B   3020           00413     MOVLW   ARRAY_START                     ; GET START POSITION OF COLUMNS
001C   0084           00414     MOVWF   FSR                     ; INDIRECT ADDRESSING TO START
                      00415     
Warning[207]: Found label after column 1. (INITIALIZE)
001D                  00416     INITIALIZE                      ; LOOP TO SET RAM
001D   3000           00417         MOVLW   0x00                ; COLUMNS ON
001E   0080           00418         MOVWF   INDF                ; FROM ACUM TO INDF COLUMNS ON AND OFF
001F   0A84           00419         INCF    FSR,F               ; INCREMENT INDIRECT TO INDIRECT
                      00420         
0020   3001           00421         MOVLW   0x01
0021   0080           00422         MOVWF   INDF                ; FROM ACUM TO INDF COLOR OF COLUMN
0022   0A84           00423         INCF    FSR,F               ; INCREMENT INDIRECT TO INDIRECT
                      00424         
0023   0BE1           00425         DECFSZ  CURRENT_COLUMN,F    ; DECREASE RAM COUNTER TO SELF
0024   2???           00426         GOTO    INITIALIZE
                      00427 
                      00428         
Warning[207]: Found label after column 1. (LOGIC_LOOP)
0025                  00429     LOGIC_LOOP
0025   1707           00430         BSF     PORTC,RC6          
0026   1307           00431         BCF     PORTC,RC6
                      00432 
0027   2???           00433         CALL    PRINT_SCREEN
                      00434         
0028   087E           00435         MOVF    LAST_POS,W
0029   3E20           00436         ADDLW   ARRAY_START
002A   0084           00437         MOVWF   FSR
002B   0806           00438         MOVF    PORTB,W
MPASM 5.82  /HOME/GUGO/MPLABXPROJECTS/PIC-LE   1-28-2019  12:55:53         PAGE 11


LOC  OBJECT CODE     LINE SOURCE TEXT
  VALUE

                      00439         
002C   2???           00440         CALL    RANDOM
002D   1CFE           00441         BTFSS   LAST_POS,0x01
002E   2???           00442         CALL    REVERSE_BYTE
002F   0080           00443         MOVWF   INDF
                      00444         
0030   0A84           00445         INCF    FSR,F
0031   2???           00446         CALL    RANDOM
0032   0080           00447         MOVWF   INDF
                      00448         
0033   0AFE           00449         INCF    LAST_POS,F
0034   0A7E           00450         INCF    LAST_POS,W
0035   393F           00451         ANDLW   0x3F
0036   00FE           00452         MOVWF   LAST_POS
                      00453         
0037   2???           00454         GOTO LOGIC_LOOP
Warning[205]: Found directive in column 1. (END)
38D2                  00455 END
MPASM 5.82  /HOME/GUGO/MPLABXPROJECTS/PIC-LE   1-28-2019  12:55:53         PAGE 12


SYMBOL TABLE
  LABEL                             VALUE 

ABDEN                             00000000
ABDOVF                            00000007
ADCON0                            0000001F
ADCON1                            0000009F
ADCS0                             00000004
ADCS1                             00000005
ADCS2                             00000006
ADDEN                             00000003
ADFM                              00000007
ADIE                              00000006
ADIF                              00000006
ADON                              00000000
ADRESH                            0000001E
ADRESL                            0000009E
ANS0                              00000000
ANS1                              00000001
ANS10                             00000002
ANS11                             00000003
ANS2                              00000002
ANS3                              00000003
ANS4                              00000004
ANS5                              00000005
ANS6                              00000006
ANS7                              00000007
ANS8                              00000000
ANS9                              00000001
ANSEL                             0000011E
ANSELH                            0000011F
ARRAY_START                       00000020
B0                                00000020
B1                                00000022
B10                               00000034
B11                               00000036
B12                               00000038
B13                               0000003A
B14                               0000003C
B15                               0000003E
B16                               00000040
B17                               00000042
B18                               00000044
B19                               00000046
B2                                00000024
B20                               00000048
B21                               0000004A
B22                               0000004C
B23                               0000004E
B24                               00000050
B25                               00000052
B26                               00000054
B27                               00000056
B28                               00000058
B29                               0000005A
B3                                00000026
MPASM 5.82  /HOME/GUGO/MPLABXPROJECTS/PIC-LE   1-28-2019  12:55:53         PAGE 13


SYMBOL TABLE
  LABEL                             VALUE 

B30                               0000005C
B31                               0000005E
B4                                00000028
B5                                0000002A
B6                                0000002C
B7                                0000002E
B8                                00000030
B9                                00000032
BAUDCTL                           0000009B
BF                                00000000
BLOCK_ROTATIONS                   0000006D
BLOCK_SIZES                       00000035
BLOCK_STARTS                      00000051
BLUE_LOOP                         00000168
BRG0                              00000000
BRG1                              00000001
BRG10                             00000002
BRG11                             00000003
BRG12                             00000004
BRG13                             00000005
BRG14                             00000006
BRG15                             00000007
BRG16                             00000003
BRG2                              00000002
BRG3                              00000003
BRG4                              00000004
BRG5                              00000005
BRG6                              00000006
BRG7                              00000007
BRG8                              00000000
BRG9                              00000001
BRGH                              00000002
C                                 00000000
C0                                00000021
C1                                00000023
C10                               00000035
C11                               00000037
C12                               00000039
C13                               0000003B
C14                               0000003D
C15                               0000003F
C16                               00000041
C17                               00000043
C18                               00000045
C19                               00000047
C1CH0                             00000000
C1CH1                             00000001
C1IE                              00000005
C1IF                              00000005
C1OE                              00000005
C1ON                              00000007
C1OUT                             00000006
C1POL                             00000004
MPASM 5.82  /HOME/GUGO/MPLABXPROJECTS/PIC-LE   1-28-2019  12:55:53         PAGE 14


SYMBOL TABLE
  LABEL                             VALUE 

C1R                               00000002
C1SEN                             00000005
C1VREN                            00000007
C2                                00000025
C20                               00000049
C21                               0000004B
C22                               0000004D
C23                               0000004F
C24                               00000051
C25                               00000053
C26                               00000055
C27                               00000057
C28                               00000059
C29                               0000005B
C2CH0                             00000000
C2CH1                             00000001
C2IE                              00000006
C2IF                              00000006
C2OE                              00000005
C2ON                              00000007
C2OUT                             00000006
C2POL                             00000004
C2R                               00000002
C2REN                             00000004
C2SYNC                            00000000
C2VREN                            00000006
C3                                00000027
C30                               0000005D
C31                               0000005F
C4                                00000029
C5                                0000002B
C6                                0000002D
C7                                0000002F
C8                                00000031
C9                                00000033
CCP1CON                           00000017
CCP1IE                            00000002
CCP1IF                            00000002
CCP1M0                            00000000
CCP1M1                            00000001
CCP1M2                            00000002
CCP1M3                            00000003
CCPR                              00000015
CCPR1H                            00000016
CCPR1L                            00000015
CHS0                              00000002
CHS1                              00000003
CHS2                              00000004
CHS3                              00000005
CKE                               00000006
CKP                               00000004
CM1CON0                           00000119
CM2CON0                           0000011A
MPASM 5.82  /HOME/GUGO/MPLABXPROJECTS/PIC-LE   1-28-2019  12:55:53         PAGE 15


SYMBOL TABLE
  LABEL                             VALUE 

CM2CON1                           0000011B
COLORS_BLUE                       00000025
COLORS_GREEN                      00000005
COLORS_RED                        00000015
COLOR_BLACK                       00000000
COLUMN_BIT                        0000010F
COLUMN_INDEX                      00000060
COLUMN_LOOP                       00000107
CREN                              00000004
CSRC                              00000007
CURRENT_COLOR                     00000064
CURRENT_COLUMN                    00000061
CURRENT_COLUMN_INDEX              00000062
CURRENT_DISPLAY_INDEX             00000068
D                                 00000005
DATA_ADDRESS                      00000005
DC                                00000001
DC1B0                             00000004
DC1B1                             00000005
DISPLAY_COLOR                     00000067
D_A                               00000005
D_NOT_A                           00000005
ECCPAS                            0000001D
ECCPAS0                           00000004
ECCPAS1                           00000005
ECCPAS2                           00000006
ECCPASE                           00000007
EEADR                             0000010D
EEADRH                            0000010F
EECON1                            0000018C
EECON2                            0000018D
EEDAT                             0000010C
EEDATA                            0000010C
EEDATH                            0000010E
EEIE                              00000004
EEIF                              00000004
EEPGD                             00000007
F                                 00000001
FERR                              00000002
FSR                               00000004
GET_BLUE                          000000E4
GET_GREEN                         000000D2
GET_PIECE                         000000A5
GET_PIECE_LOOP                    000000B2
GET_PIECE_ROTATION                0000009E
GET_PIECE_START                   00000096
GET_RED                           000000DB
GET_SIZE                          0000008E
GIE                               00000007
GO                                00000001
GO_DONE                           00000001
GO_NOT_DONE                       00000001
GREEN_LOOP                        00000125
MPASM 5.82  /HOME/GUGO/MPLABXPROJECTS/PIC-LE   1-28-2019  12:55:53         PAGE 16


SYMBOL TABLE
  LABEL                             VALUE 

HTS                               00000002
I2C_DATA                          00000005
I2C_READ                          00000002
I2C_START                         00000003
I2C_STOP                          00000004
INDEXED_COLOR                     00000065
INDF                              00000000
INITIALIZE                        0000001D
INTCON                            0000000B
INTE                              00000004
INTEDG                            00000006
INTF                              00000001
IOC                               00000096
IOC0                              00000000
IOC1                              00000001
IOC2                              00000002
IOC3                              00000003
IOC4                              00000004
IOC5                              00000005
IOCA                              00000096
IOCA0                             00000000
IOCA1                             00000001
IOCA2                             00000002
IOCA3                             00000003
IOCA4                             00000004
IOCA5                             00000005
IOCB                              00000116
IOCB4                             00000004
IOCB5                             00000005
IOCB6                             00000006
IOCB7                             00000007
IRCF0                             00000004
IRCF1                             00000005
IRCF2                             00000006
IRP                               00000007
LAST_POS                          0000007E
LAST_STATE                        0000007F
LOGIC_LOOP                        00000025
LOOP_BLUE_END                     00000172
LOOP_BLUE_SHORT                   00000170
LOOP_GREEN_END                    0000012F
LOOP_GREEN_SHORT                  0000012D
LOOP_RED_END                      00000151
LOOP_RED_SHORT                    0000014F
LTS                               00000001
MAX_COLORS                        0000000F
MAX_ROTATIONS                     00000003
MC1OUT                            00000007
MC2OUT                            00000006
MSK                               00000093
MSK0                              00000000
MSK1                              00000001
MSK2                              00000002
MPASM 5.82  /HOME/GUGO/MPLABXPROJECTS/PIC-LE   1-28-2019  12:55:53         PAGE 17


SYMBOL TABLE
  LABEL                             VALUE 

MSK3                              00000003
MSK4                              00000004
MSK5                              00000005
MSK6                              00000006
MSK7                              00000007
NOT_A                             00000005
NOT_ADDRESS                       00000005
NOT_BOR                           00000000
NOT_DONE                          00000001
NOT_PD                            00000003
NOT_POR                           00000001
NOT_RABPU                         00000007
NOT_T1SYNC                        00000002
NOT_TO                            00000004
NOT_W                             00000002
NOT_WRITE                         00000002
OERR                              00000001
OPTION_REG                        00000081
OSCCON                            0000008F
OSCTUNE                           00000090
OSFIE                             00000007
OSFIF                             00000007
OSTS                              00000003
P                                 00000004
P1M0                              00000006
P1M1                              00000007
PATTERN                           00000001
PCL                               00000002
PCLATH                            0000000A
PCON                              0000008E
PDC0                              00000000
PDC1                              00000001
PDC2                              00000002
PDC3                              00000003
PDC4                              00000004
PDC5                              00000005
PDC6                              00000006
PEIE                              00000006
PIE1                              0000008C
PIE2                              0000008D
PIECE_0                           00000079
PIECE_1                           0000007A
PIECE_2                           0000007B
PIECE_3                           0000007C
PIECE_SIZE                        0000007D
PIECE_START                       00000062
PIECE_TABLE                       00000063
PIECE_TEMP                        00000060
PIECE_TYPE                        00000078
PIR1                              0000000C
PIR2                              0000000D
PORTA                             00000005
PORTB                             00000006
MPASM 5.82  /HOME/GUGO/MPLABXPROJECTS/PIC-LE   1-28-2019  12:55:53         PAGE 18


SYMBOL TABLE
  LABEL                             VALUE 

PORTC                             00000007
PR2                               00000092
PRINT_SCREEN                      000000ED
PRSEN                             00000007
PS0                               00000000
PS1                               00000001
PS2                               00000002
PSA                               00000003
PSSAC0                            00000002
PSSAC1                            00000003
PSSBD0                            00000000
PSSBD1                            00000001
PSTRCON                           0000019D
PULSR                             00000002
PULSS                             00000003
PWM1CON                           0000001C
R                                 00000002
RA0                               00000000
RA1                               00000001
RA2                               00000002
RA3                               00000003
RA4                               00000004
RA5                               00000005
RABIE                             00000003
RABIF                             00000000
RANDOM                            000000B9
RB4                               00000004
RB5                               00000005
RB6                               00000006
RB7                               00000007
RC0                               00000000
RC1                               00000001
RC2                               00000002
RC3                               00000003
RC4                               00000004
RC5                               00000005
RC6                               00000006
RC7                               00000007
RCIDL                             00000006
RCIE                              00000005
RCIF                              00000005
RCREG                             0000001A
RCSTA                             00000018
RD                                00000000
READ_WRITE                        00000002
RED_LOOP                          00000147
REVERSE_BYTE                      000000C9
REVERSE_COUNT                     00000062
REVERSE_LOOP                      000000CC
REVERSE_RET                       00000061
REVERSE_TEMP                      00000060
RP0                               00000005
RP1                               00000006
MPASM 5.82  /HOME/GUGO/MPLABXPROJECTS/PIC-LE   1-28-2019  12:55:53         PAGE 19


SYMBOL TABLE
  LABEL                             VALUE 

RX9                               00000006
RX9D                              00000000
R_NOT_W                           00000002
R_W                               00000002
S                                 00000003
SBOREN                            00000004
SCKP                              00000004
SCS                               00000000
SENB                              00000003
SENDB                             00000003
SEND_RESET                        000000F5
SEND_RESET_HIGH                   000000F0
SIZE_B                            00000008
SIZE_COL                          00000020
SIZE_TEMP                         00000061
SMP                               00000007
SPBRG                             00000099
SPBRGH                            0000009A
SPEN                              00000007
SR0                               00000006
SR1                               00000007
SRCON                             0000019E
SREN                              00000005
SSPADD                            00000093
SSPBUF                            00000013
SSPCON                            00000014
SSPEN                             00000005
SSPIE                             00000003
SSPIF                             00000003
SSPM0                             00000000
SSPM1                             00000001
SSPM2                             00000002
SSPM3                             00000003
SSPMSK                            00000093
SSPOV                             00000006
SSPSTAT                           00000094
STABILIZATION                     00000012
START                             00000000
STATUS                            00000003
STRA                              00000000
STRB                              00000001
STRC                              00000002
STRD                              00000003
STRSYNC                           00000004
SWDTEN                            00000000
SYNC                              00000004
T0CS                              00000005
T0IE                              00000005
T0IF                              00000002
T0SE                              00000004
T1CKPS0                           00000004
T1CKPS1                           00000005
T1CON                             00000010
MPASM 5.82  /HOME/GUGO/MPLABXPROJECTS/PIC-LE   1-28-2019  12:55:53         PAGE 20


SYMBOL TABLE
  LABEL                             VALUE 

T1GINV                            00000007
T1GSS                             00000001
T1IE                              00000000
T1IF                              00000000
T1OSCEN                           00000003
T2CKPS0                           00000000
T2CKPS1                           00000001
T2CON                             00000012
T2IE                              00000001
T2IF                              00000001
TABLE_TEMPORAL                    00000063
TEMP_COLOR                        00000066
TMR0                              00000001
TMR1                              0000000E
TMR1CS                            00000001
TMR1GE                            00000006
TMR1H                             0000000F
TMR1IE                            00000000
TMR1IF                            00000000
TMR1L                             0000000E
TMR1ON                            00000000
TMR2                              00000011
TMR2IE                            00000001
TMR2IF                            00000001
TMR2ON                            00000002
TOUTPS0                           00000003
TOUTPS1                           00000004
TOUTPS2                           00000005
TOUTPS3                           00000006
TRISA                             00000085
TRISA0                            00000000
TRISA1                            00000001
TRISA2                            00000002
TRISA3                            00000003
TRISA4                            00000004
TRISA5                            00000005
TRISB                             00000086
TRISB4                            00000004
TRISB5                            00000005
TRISB6                            00000006
TRISB7                            00000007
TRISC                             00000087
TRISC0                            00000000
TRISC1                            00000001
TRISC2                            00000002
TRISC3                            00000003
TRISC4                            00000004
TRISC5                            00000005
TRISC6                            00000006
TRISC7                            00000007
TRMT                              00000001
TUN0                              00000000
TUN1                              00000001
MPASM 5.82  /HOME/GUGO/MPLABXPROJECTS/PIC-LE   1-28-2019  12:55:53         PAGE 21


SYMBOL TABLE
  LABEL                             VALUE 

TUN2                              00000002
TUN3                              00000003
TUN4                              00000004
TX9                               00000006
TX9D                              00000000
TXEN                              00000005
TXIE                              00000004
TXIF                              00000004
TXREG                             00000019
TXSTA                             00000098
UA                                00000001
ULPWUE                            00000005
VCFG                              00000006
VP6EN                             00000004
VR0                               00000000
VR1                               00000001
VR2                               00000002
VR3                               00000003
VRCON                             00000118
VRR                               00000005
W                                 00000000
WCOL                              00000007
WDTCON                            00000097
WDTPS0                            00000001
WDTPS1                            00000002
WDTPS2                            00000003
WDTPS3                            00000004
WPU                               00000095
WPU0                              00000000
WPU1                              00000001
WPU2                              00000002
WPU4                              00000004
WPU5                              00000005
WPUA                              00000095
WPUA0                             00000000
WPUA1                             00000001
WPUA2                             00000002
WPUA4                             00000004
WPUA5                             00000005
WPUB                              00000115
WPUB4                             00000004
WPUB5                             00000005
WPUB6                             00000006
WPUB7                             00000007
WR                                00000001
WREN                              00000002
WRERR                             00000003
WUE                               00000001
Z                                 00000002
_BOD_NSLEEP                       00003EFF
_BOD_OFF                          00003CFF
_BOD_ON                           00003FFF
_BOD_SBODEN                       00003DFF
MPASM 5.82  /HOME/GUGO/MPLABXPROJECTS/PIC-LE   1-28-2019  12:55:53         PAGE 22


SYMBOL TABLE
  LABEL                             VALUE 

_BOREN_NSLEEP                     00003EFF
_BOREN_OFF                        00003CFF
_BOREN_ON                         00003FFF
_BOREN_SBODEN                     00003DFF
_BOR_NSLEEP                       00003EFF
_BOR_OFF                          00003CFF
_BOR_ON                           00003FFF
_BOR_SBODEN                       00003DFF
_CONFIG                           00002007
_CPD_OFF                          00003FFF
_CPD_ON                           00003F7F
_CP_OFF                           00003FFF
_CP_ON                            00003FBF
_DEVID1                           00002006
_EC_OSC                           00003FFB
_EXTRC                            00003FFF
_EXTRCIO                          00003FFE
_EXTRC_OSC_CLKOUT                 00003FFF
_EXTRC_OSC_NOCLKOUT               00003FFE
_FCMEN_OFF                        000037FF
_FCMEN_ON                         00003FFF
_FOSC_EC                          00003FFB
_FOSC_EXTRCCLK                    00003FFF
_FOSC_EXTRCIO                     00003FFE
_FOSC_HS                          00003FFA
_FOSC_INTRCCLK                    00003FFD
_FOSC_INTRCIO                     00003FFC
_FOSC_LP                          00003FF8
_FOSC_XT                          00003FF9
_HS_OSC                           00003FFA
_IDLOC0                           00002000
_IDLOC1                           00002001
_IDLOC2                           00002002
_IDLOC3                           00002003
_IESO_OFF                         00003BFF
_IESO_ON                          00003FFF
_INTOSC                           00003FFD
_INTOSCIO                         00003FFC
_INTRC_OSC_CLKOUT                 00003FFD
_INTRC_OSC_NOCLKOUT               00003FFC
_LP_OSC                           00003FF8
_MCLRE_OFF                        00003FDF
_MCLRE_ON                         00003FFF
_PWRTE_OFF                        00003FFF
_PWRTE_ON                         00003FEF
_WDTE_OFF                         00003FF7
_WDTE_ON                          00003FFF
_WDT_OFF                          00003FF7
_WDT_ON                           00003FFF
_XT_OSC                           00003FF9
__16F690                          00000001
hiB                               00000077
lowB                              00000076
MPASM 5.82  /HOME/GUGO/MPLABXPROJECTS/PIC-LE   1-28-2019  12:55:53         PAGE 23






Errors   :     0
Warnings :    19 reported,     0 suppressed
Messages :    17 reported,     0 suppressed

